; Function Attrs: nofree nounwind uwtable
define noalias noundef ptr @Saig_MvManFindXFlops(ptr noundef readonly captures(none) %0) local_unnamed_addr #8 {
  %2 = getelementptr inbounds nuw i8, ptr %0, i64 20
  %3 = load i32, ptr %2, align 4, !tbaa !48
  %4 = tail call noalias dereferenceable_or_null(16) ptr @malloc(i64 noundef 16) #19
  %5 = add i32 %3, -1
  %or.cond.i.i = icmp ult i32 %5, 15
  %spec.store.select.i.i = select i1 %or.cond.i.i, i32 16, i32 %3
  %6 = getelementptr inbounds nuw i8, ptr %4, i64 4
  store i32 %spec.store.select.i.i, ptr %4, align 8, !tbaa !85
  %.not.i.i = icmp eq i32 %spec.store.select.i.i, 0
  br i1 %.not.i.i, label %Vec_IntAlloc.exit.thread.i, label %Vec_IntAlloc.exit.i

Vec_IntAlloc.exit.thread.i:                       ; preds = %1
  %7 = getelementptr inbounds nuw i8, ptr %4, i64 8
  store ptr null, ptr %7, align 8, !tbaa !74
  store i32 %3, ptr %6, align 4, !tbaa !84
  br label %Vec_IntStart.exit

Vec_IntAlloc.exit.i:                              ; preds = %1
  %8 = sext i32 %spec.store.select.i.i to i64
  %9 = shl nsw i64 %8, 2
  %10 = tail call noalias ptr @malloc(i64 noundef %9) #19
  %11 = getelementptr inbounds nuw i8, ptr %4, i64 8
  store ptr %10, ptr %11, align 8, !tbaa !74
  store i32 %3, ptr %6, align 4, !tbaa !84
  %.not.i = icmp eq ptr %10, null
  br i1 %.not.i, label %Vec_IntStart.exit, label %12

12:                                               ; preds = %Vec_IntAlloc.exit.i
  %13 = sext i32 %3 to i64
  %14 = shl nsw i64 %13, 2
  tail call void @llvm.memset.p0.i64(ptr nonnull align 4 %10, i8 0, i64 %14, i1 false)
  br label %Vec_IntStart.exit

Vec_IntStart.exit:                                ; preds = %Vec_IntAlloc.exit.thread.i, %Vec_IntAlloc.exit.i, %12
  %.val15 = phi ptr [ null, %Vec_IntAlloc.exit.thread.i ], [ null, %Vec_IntAlloc.exit.i ], [ %10, %12 ]
  %15 = getelementptr inbounds nuw i8, ptr %0, i64 80
  %16 = load ptr, ptr %15, align 8, !tbaa !55
  %17 = getelementptr i8, ptr %16, i64 4
  %.val17 = load i32, ptr %17, align 4, !tbaa !21
  %18 = icmp sgt i32 %.val17, 1
  br i1 %18, label %.lr.ph19, label %.critedge

.lr.ph19:                                         ; preds = %Vec_IntStart.exit
  %19 = getelementptr i8, ptr %16, i64 8
  %.val14 = load ptr, ptr %19, align 8, !tbaa !24
  %20 = icmp sgt i32 %3, 0
  br i1 %20, label %.lr.ph19.split.preheader, label %.critedge

.lr.ph19.split.preheader:                         ; preds = %.lr.ph19
  %21 = zext nneg i32 %3 to i64
  br label %.lr.ph.preheader

.lr.ph.preheader:                                 ; preds = %._crit_edge, %.lr.ph19.split.preheader
  %indvars.iv22 = phi i64 [ 1, %.lr.ph19.split.preheader ], [ %indvars.iv.next23, %._crit_edge ]
  %22 = getelementptr inbounds nuw ptr, ptr %.val14, i64 %indvars.iv22
  %23 = load ptr, ptr %22, align 8, !tbaa !27
  br label %.lr.ph

.lr.ph:                                           ; preds = %.lr.ph.preheader, %28
  %indvars.iv = phi i64 [ 0, %.lr.ph.preheader ], [ %indvars.iv.next, %28 ]
  %indvars.iv.next = add nuw nsw i64 %indvars.iv, 1
  %24 = getelementptr inbounds nuw i32, ptr %23, i64 %indvars.iv.next
  %25 = load i32, ptr %24, align 4, !tbaa !78
  %.not = icmp eq i32 %25, 536870910
  br i1 %.not, label %26, label %28

26:                                               ; preds = %.lr.ph
  %27 = getelementptr inbounds nuw i32, ptr %.val15, i64 %indvars.iv
  store i32 1, ptr %27, align 4, !tbaa !78
  br label %28

28:                                               ; preds = %.lr.ph, %26
  %29 = icmp samesign ult i64 %indvars.iv.next, %21
  br i1 %29, label %.lr.ph, label %._crit_edge, !llvm.loop !92

._crit_edge:                                      ; preds = %28
  %.val.pre = load i32, ptr %17, align 4, !tbaa !21
  %30 = sext i32 %.val.pre to i64
  %indvars.iv.next23 = add nuw nsw i64 %indvars.iv22, 1
  %31 = icmp slt i64 %indvars.iv.next23, %30
  br i1 %31, label %.lr.ph.preheader, label %.critedge, !llvm.loop !93

.critedge:                                        ; preds = %._crit_edge, %.lr.ph19, %Vec_IntStart.exit
  ret ptr %4
}